target datalayout = "e-m:e-p270:32:32-p271:32:32-p272:64:64-i64:64-i128:128-f80:128-n8:16:32:64-S128"
target triple = "x86_64-pc-linux-gnu"

%class.GCHeapSummaryEventSender = type <{ %class.GCHeapSummaryVisitor, i32, [4 x i8] }>
%class.GCHeapSummaryVisitor = type { ptr }

@_ZTV20GCHeapSummaryVisitor = linkonce_odr hidden unnamed_addr constant { [5 x ptr] } { [5 x ptr] [ptr null, ptr null, ptr @__cxa_pure_virtual, ptr @_ZNK20GCHeapSummaryVisitor5visitEPK13PSHeapSummary, ptr @_ZNK20GCHeapSummaryVisitor5visitEPK13G1HeapSummary] }, comdat, align 8

; Function Attrs: mustprogress nounwind uwtable
define linkonce_odr hidden void @_ZN20GCHeapSummaryVisitorC2Ev(ptr noundef nonnull align 8 dereferenceable(8) %0) unnamed_addr #1 comdat align 2 {
  %2 = alloca ptr, align 8
  store ptr %0, ptr %2, align 8
  %3 = load ptr, ptr %2, align 8
  store ptr getelementptr inbounds inrange(-16, 24) ({ [5 x ptr] }, ptr @_ZTV20GCHeapSummaryVisitor, i32 0, i32 0, i32 2), ptr %3, align 8
  ret void
}

; Function Attrs: mustprogress nounwind uwtable
define linkonce_odr hidden void @_ZN24GCHeapSummaryEventSenderC2EN6GCWhen4TypeE(ptr noundef nonnull align 8 dereferenceable(12) %0, i32 noundef %1) unnamed_addr #1 comdat align 2 {
  %3 = alloca ptr, align 8
  %4 = alloca i32, align 4
  store ptr %0, ptr %3, align 8
  store i32 %1, ptr %4, align 4
  %5 = load ptr, ptr %3, align 8
  call void @_ZN20GCHeapSummaryVisitorC2Ev(ptr noundef nonnull align 8 dereferenceable(8) %5) #5
  store ptr getelementptr inbounds inrange(-16, 24) ({ [5 x ptr] }, ptr @_ZTV24GCHeapSummaryEventSender, i32 0, i32 0, i32 2), ptr %5, align 8
  %6 = getelementptr inbounds %class.GCHeapSummaryEventSender, ptr %5, i32 0, i32 1
  %7 = load i32, ptr %4, align 4
  store i32 %7, ptr %6, align 8
  ret void
}

; Function Attrs: mustprogress nounwind uwtable
define hidden void @_ZNK8GCTracer26send_gc_heap_summary_eventEN6GCWhen4TypeERK13GCHeapSummary(ptr noundef nonnull align 8 dereferenceable(80) %0, i32 noundef %1, ptr noundef nonnull align 8 dereferenceable(40) %2) #1 align 2 {
  %4 = alloca ptr, align 8
  %5 = alloca i32, align 4
  %6 = alloca ptr, align 8
  %7 = alloca %class.GCHeapSummaryEventSender, align 8
  store ptr %0, ptr %4, align 8
  store i32 %1, ptr %5, align 4
  store ptr %2, ptr %6, align 8
  %8 = load i32, ptr %5, align 4
  call void @_ZN24GCHeapSummaryEventSenderC2EN6GCWhen4TypeE(ptr noundef nonnull align 8 dereferenceable(12) %7, i32 noundef %8)
  %9 = load ptr, ptr %6, align 8
  %10 = load ptr, ptr %9, align 8
  %11 = getelementptr inbounds ptr, ptr %10, i64 0
  %12 = load ptr, ptr %11, align 8
  call void %12(ptr noundef nonnull align 8 dereferenceable(40) %9, ptr noundef %7)
  ret void
}