; Function Attrs: mustprogress nounwind uwtable
define hidden void @_ZNK8GCTracer26send_gc_heap_summary_eventEN6GCWhen4TypeERK13GCHeapSummary(ptr nocapture noundef nonnull readnone align 8 dereferenceable(80) %0, i32 noundef %1, ptr noundef nonnull align 8 dereferenceable(40) %2) local_unnamed_addr #1 align 2 {
  %4 = alloca %class.GCHeapSummaryEventSender, align 8
  store ptr getelementptr inbounds inrange(-16, 24) (i8, ptr @_ZTV24GCHeapSummaryEventSender, i64 16), ptr %4, align 8
  %5 = getelementptr inbounds i8, ptr %4, i64 8
  store i32 %1, ptr %5, align 8
  %6 = load ptr, ptr %2, align 8
  %7 = load ptr, ptr %6, align 8
  call void %7(ptr noundef nonnull align 8 dereferenceable(40) %2, ptr noundef nonnull %4) #11
  ret void
}